target datalayout = "e-m:e-p270:32:32-p271:32:32-p272:64:64-i64:64-i128:128-f80:128-n8:16:32:64-S128"
target triple = "x86_64-pc-linux-gnu"

%struct.slurm_conf_t = type { i64, ptr, i16, ptr, ptr, ptr, ptr, ptr, i16, ptr, ptr, ptr, ptr, ptr, ptr, ptr, i16, ptr, ptr, ptr, ptr, i16, ptr, ptr, ptr, i64, ptr, ptr, ptr, ptr, i16, ptr, ptr, i16, i32, ptr, i32, ptr, i32, i32, ptr, ptr, i64, i64, ptr, i16, i16, ptr, i32, i32, ptr, i32, ptr, i32, i16, i16, i16, ptr, i16, i16, ptr, ptr, i32, i16, i16, ptr, i32, i16, ptr, ptr, ptr, ptr, i16, ptr, ptr, ptr, ptr, i32, ptr, ptr, ptr, ptr, i16, i16, ptr, i32, i32, i32, i16, i16, ptr, ptr, i16, ptr, ptr, i32, i32, i32, i32, i32, i64, i32, i32, i16, ptr, ptr, i32, ptr, ptr, ptr, i16, i32, ptr, ptr, i16, ptr, ptr, i32, i16, ptr, ptr, ptr, ptr, i32, i32, i16, i16, i32, ptr, i16, ptr, i32, i32, i32, i32, i32, i32, ptr, i16, ptr, ptr, i32, i16, ptr, i32, i16, i16, ptr, ptr, ptr, i16, ptr, ptr, ptr, ptr, i16, i16, ptr, i16, ptr, i16, ptr, i16, ptr, i16, ptr, ptr, ptr, ptr, i16, ptr, ptr, ptr, i32, ptr, i32, ptr, ptr, i16, ptr, ptr, i32, i16, ptr, ptr, i16, i16, ptr, i16, ptr, ptr, ptr, i32, ptr, i16, i16, ptr, ptr, ptr, ptr, ptr, ptr, ptr, ptr, i16, i32, i16, ptr, ptr, ptr, ptr, i32, ptr, ptr, ptr, i16, ptr, ptr, ptr, i16, ptr, i16, ptr, i16, i16, ptr }
%struct.job_record = type { i32, ptr, ptr, ptr, ptr, i16, i32, i32, i32, ptr, i32, ptr, ptr, i16, ptr, double, i64, ptr, ptr, ptr, ptr, ptr, ptr, i32, ptr, i32, i64, i64, i32, i32, ptr, i16, i64, i64, i8, i32, ptr, ptr, ptr, ptr, ptr, ptr, ptr, ptr, i32, ptr, ptr, i32, ptr, i32, ptr, i32, ptr, i32, ptr, ptr, ptr, ptr, ptr, ptr, i32, i16, i64, ptr, ptr, ptr, ptr, %struct.acct_policy_limit_set_t, i16, ptr, ptr, ptr, ptr, ptr, i32, ptr, ptr, ptr, ptr, ptr, i32, i32, ptr, ptr, ptr, i16, ptr, ptr, i8, ptr, ptr, i64, i64, i8, i32, i32, i8, i32, ptr, i32, i64, i32, ptr, ptr, ptr, i8, i16, i64, i32, ptr, ptr, ptr, ptr, ptr, i16, i32, ptr, ptr, ptr, ptr, i32, ptr, i32, i16, i64, ptr, i32, i32, ptr, i64, ptr, ptr, i64, i32, i32, i64, i32, i32, ptr, ptr, ptr, ptr, ptr, ptr, ptr, ptr, ptr, ptr, ptr, ptr, i32, ptr, i16, i16, i16, i16, ptr, i32, i32, i8, i64 }
%struct.acct_policy_limit_set_t = type { i16, i16, ptr }
%struct.node_record = type { ptr, ptr, i16, i64, i64, ptr, ptr, ptr, i16, ptr, i16, i16, i32, i32, i64, ptr, i16, i16, ptr, ptr, ptr, ptr, ptr, i64, i64, ptr, ptr, ptr, ptr, i32, ptr, ptr, i64, i64, i32, ptr, i64, ptr, i32, i16, ptr, ptr, i32, ptr, i32, i8, ptr, i32, i16, i16, ptr, i16, i64, i16, i64, ptr, i64, i32, i16, i64, i16, ptr, i16, i64, ptr, i64, i16, i32, i16, ptr, ptr, ptr, i16, i32, i16, i16, i32, ptr, i16, i32 }
%struct.sockaddr_storage = type { i16, [118 x i8], i64 }

@slurm_conf = external global %struct.slurm_conf_t, align 8
@.str = private unnamed_addr constant [4 x i8] c"TBD\00", align 1
@.str.1 = private unnamed_addr constant [17 x i8] c"node_scheduler.c\00", align 1
@__func__.set_job_node_addrs = private unnamed_addr constant [19 x i8] c"set_job_node_addrs\00", align 1

; Function Attrs: nounwind uwtable
define dso_local void @set_job_node_addrs(ptr noundef %0, ptr noundef %1) #0 {
  %3 = alloca ptr, align 8
  %4 = alloca ptr, align 8
  %5 = alloca ptr, align 8
  %6 = alloca i32, align 4
  %7 = alloca i32, align 4
  store ptr %0, ptr %3, align 8
  store ptr %1, ptr %4, align 8
  %8 = load ptr, ptr %3, align 8
  %9 = getelementptr inbounds nuw %struct.job_record, ptr %8, i32 0, i32 76
  %10 = load ptr, ptr %9, align 8
  %11 = icmp ne ptr %10, null
  br i1 %11, label %79, label %12

12:                                               ; preds = %2
  %13 = load ptr, ptr %3, align 8
  %14 = getelementptr inbounds nuw %struct.job_record, ptr %13, i32 0, i32 77
  %15 = load ptr, ptr %14, align 8
  %16 = icmp ne ptr %15, null
  br i1 %16, label %17, label %79

17:                                               ; preds = %12
  %18 = load ptr, ptr %3, align 8
  %19 = getelementptr inbounds nuw %struct.job_record, ptr %18, i32 0, i32 77
  %20 = load ptr, ptr %19, align 8
  %21 = call i32 @bit_set_count(ptr noundef %20)
  %22 = icmp ne i32 %21, 0
  br i1 %22, label %23, label %79

23:                                               ; preds = %17
  %24 = load ptr, ptr %3, align 8
  %25 = getelementptr inbounds nuw %struct.job_record, ptr %24, i32 0, i32 3
  %26 = load ptr, ptr %25, align 8
  %27 = icmp ne ptr %26, null
  br i1 %27, label %36, label %28

28:                                               ; preds = %23
  %29 = load ptr, ptr %4, align 8
  %30 = icmp ne ptr %29, null
  br i1 %30, label %31, label %36

31:                                               ; preds = %28
  %32 = load ptr, ptr %4, align 8
  %33 = load ptr, ptr getelementptr inbounds nuw (%struct.slurm_conf_t, ptr @slurm_conf, i32 0, i32 31), align 8
  %34 = call i32 @xstrcmp(ptr noundef %32, ptr noundef %33)
  %35 = icmp ne i32 %34, 0
  br i1 %35, label %47, label %36

36:                                               ; preds = %31, %28, %23
  %37 = load ptr, ptr %3, align 8
  %38 = getelementptr inbounds nuw %struct.job_record, ptr %37, i32 0, i32 3
  %39 = load ptr, ptr %38, align 8
  %40 = icmp ne ptr %39, null
  br i1 %40, label %41, label %79

41:                                               ; preds = %36
  %42 = load ptr, ptr %3, align 8
  %43 = getelementptr inbounds nuw %struct.job_record, ptr %42, i32 0, i32 3
  %44 = load ptr, ptr %43, align 8
  %45 = call i32 @xstrcmp(ptr noundef %44, ptr noundef @.str)
  %46 = icmp ne i32 %45, 0
  br i1 %46, label %47, label %79

47:                                               ; preds = %41, %31
  call void @llvm.lifetime.start.p0(i64 8, ptr %5) #8
  %48 = load ptr, ptr %3, align 8
  %49 = getelementptr inbounds nuw %struct.job_record, ptr %48, i32 0, i32 77
  %50 = load ptr, ptr %49, align 8
  %51 = call i32 @bit_set_count(ptr noundef %50)
  %52 = sext i32 %51 to i64
  %53 = call ptr @slurm_xcalloc(i64 noundef %52, i64 noundef 128, i1 noundef zeroext true, i1 noundef zeroext false, ptr noundef @.str.1, i32 noundef 253, ptr noundef @__func__.set_job_node_addrs)
  %54 = load ptr, ptr %3, align 8
  %55 = getelementptr inbounds nuw %struct.job_record, ptr %54, i32 0, i32 76
  store ptr %53, ptr %55, align 8
  call void @llvm.lifetime.start.p0(i64 4, ptr %6) #8
  store i32 0, ptr %6, align 4
  call void @llvm.lifetime.start.p0(i64 4, ptr %7) #8
  store i32 0, ptr %7, align 4
  br label %56

56:                                               ; preds = %75, %47
  %57 = load ptr, ptr %3, align 8
  %58 = getelementptr inbounds nuw %struct.job_record, ptr %57, i32 0, i32 77
  %59 = load ptr, ptr %58, align 8
  %60 = call ptr @next_node_bitmap(ptr noundef %59, ptr noundef %6)
  store ptr %60, ptr %5, align 8
  %61 = icmp ne ptr %60, null
  br i1 %61, label %63, label %62

62:                                               ; preds = %56
  call void @llvm.lifetime.end.p0(i64 4, ptr %7) #8
  call void @llvm.lifetime.end.p0(i64 4, ptr %6) #8
  br label %78

63:                                               ; preds = %56
  %64 = load ptr, ptr %5, align 8
  %65 = getelementptr inbounds nuw %struct.node_record, ptr %64, i32 0, i32 37
  %66 = load ptr, ptr %65, align 8
  %67 = load ptr, ptr %3, align 8
  %68 = getelementptr inbounds nuw %struct.job_record, ptr %67, i32 0, i32 76
  %69 = load ptr, ptr %68, align 8
  %70 = load i32, ptr %7, align 4
  %71 = add nsw i32 %70, 1
  store i32 %71, ptr %7, align 4
  %72 = sext i32 %70 to i64
  %73 = getelementptr inbounds %struct.sockaddr_storage, ptr %69, i64 %72
  %74 = call i32 @slurm_conf_get_addr(ptr noundef %66, ptr noundef %73, i16 noundef zeroext 0)
  br label %75

75:                                               ; preds = %63
  %76 = load i32, ptr %6, align 4
  %77 = add nsw i32 %76, 1
  store i32 %77, ptr %6, align 4
  br label %56, !llvm.loop !15

78:                                               ; preds = %62
  call void @llvm.lifetime.end.p0(i64 8, ptr %5) #8
  br label %79

79:                                               ; preds = %78, %41, %36, %17, %12, %2
  ret void
}