; Function Attrs: nounwind uwtable
define dso_local void @set_job_node_addrs(ptr noundef captures(none) %0, ptr noundef %1) local_unnamed_addr #0 {
  %3 = alloca i32, align 4
  %4 = getelementptr inbounds nuw i8, ptr %0, i64 576
  %5 = load ptr, ptr %4, align 8
  %.not = icmp eq ptr %5, null
  br i1 %.not, label %6, label %40

6:                                                ; preds = %2
  %7 = getelementptr inbounds nuw i8, ptr %0, i64 584
  %8 = load ptr, ptr %7, align 8
  %.not18 = icmp eq ptr %8, null
  br i1 %.not18, label %40, label %9

9:                                                ; preds = %6
  %10 = tail call i32 @bit_set_count(ptr noundef nonnull %8) #14
  %.not19 = icmp eq i32 %10, 0
  br i1 %.not19, label %40, label %11

11:                                               ; preds = %9
  %12 = getelementptr inbounds nuw i8, ptr %0, i64 24
  %13 = load ptr, ptr %12, align 8
  %14 = icmp eq ptr %13, null
  %15 = icmp ne ptr %1, null
  %or.cond = and i1 %15, %14
  br i1 %or.cond, label %16, label %19

16:                                               ; preds = %11
  %17 = load ptr, ptr getelementptr inbounds nuw (i8, ptr @slurm_conf, i64 248), align 8
  %18 = tail call i32 @xstrcmp(ptr noundef nonnull %1, ptr noundef %17) #14
  %.not20 = icmp eq i32 %18, 0
  br i1 %.not20, label %thread-pre-split, label %23

thread-pre-split:                                 ; preds = %16
  %.pr = load ptr, ptr %12, align 8
  br label %19

19:                                               ; preds = %thread-pre-split, %11
  %20 = phi ptr [ %.pr, %thread-pre-split ], [ %13, %11 ]
  %.not21 = icmp eq ptr %20, null
  br i1 %.not21, label %40, label %21

21:                                               ; preds = %19
  %22 = tail call i32 @xstrcmp(ptr noundef nonnull %20, ptr noundef nonnull @.str) #14
  %.not22 = icmp eq i32 %22, 0
  br i1 %.not22, label %40, label %23

23:                                               ; preds = %21, %16
  %24 = load ptr, ptr %7, align 8
  %25 = tail call i32 @bit_set_count(ptr noundef %24) #14
  %26 = sext i32 %25 to i64
  %27 = tail call ptr @slurm_xcalloc(i64 noundef %26, i64 noundef 128, i1 noundef zeroext true, i1 noundef zeroext false, ptr noundef nonnull @.str.1, i32 noundef 253, ptr noundef nonnull @__func__.set_job_node_addrs) #14
  store ptr %27, ptr %4, align 8
  call void @llvm.lifetime.start.p0(i64 4, ptr nonnull %3) #14
  store i32 0, ptr %3, align 4
  %28 = load ptr, ptr %7, align 8
  %29 = call ptr @next_node_bitmap(ptr noundef %28, ptr noundef nonnull %3) #14
  %.not2324 = icmp eq ptr %29, null
  br i1 %.not2324, label %._crit_edge, label %.lr.ph

._crit_edge:                                      ; preds = %.lr.ph, %23
  call void @llvm.lifetime.end.p0(i64 4, ptr nonnull %3) #14
  br label %40

.lr.ph:                                           ; preds = %23, %.lr.ph
  %indvars.iv = phi i64 [ %indvars.iv.next, %.lr.ph ], [ 0, %23 ]
  %30 = phi ptr [ %39, %.lr.ph ], [ %29, %23 ]
  %31 = getelementptr inbounds nuw i8, ptr %30, i64 272
  %32 = load ptr, ptr %31, align 8
  %33 = load ptr, ptr %4, align 8
  %indvars.iv.next = add nuw nsw i64 %indvars.iv, 1
  %34 = getelementptr inbounds nuw %struct.sockaddr_storage, ptr %33, i64 %indvars.iv
  %35 = call i32 @slurm_conf_get_addr(ptr noundef %32, ptr noundef %34, i16 noundef zeroext 0) #14
  %36 = load i32, ptr %3, align 4
  %37 = add nsw i32 %36, 1
  store i32 %37, ptr %3, align 4
  %38 = load ptr, ptr %7, align 8
  %39 = call ptr @next_node_bitmap(ptr noundef %38, ptr noundef nonnull %3) #14
  %.not23 = icmp eq ptr %39, null
  br i1 %.not23, label %._crit_edge, label %.lr.ph, !llvm.loop !15

40:                                               ; preds = %._crit_edge, %21, %19, %9, %6, %2
  ret void
}